target datalayout = "e-m:e-p270:32:32-p271:32:32-p272:64:64-i64:64-i128:128-f80:128-n8:16:32:64-S128"
target triple = "x86_64-pc-linux-gnu"

@__const.cli_str2hex.HEX = private unnamed_addr constant [16 x i8] c"0123456789abcdef", align 16

; Function Attrs: nounwind uwtable
define ptr @cli_str2hex(ptr noundef %0, i32 noundef %1) #0 {
  %3 = alloca ptr, align 8
  %4 = alloca ptr, align 8
  %5 = alloca i32, align 4
  %6 = alloca ptr, align 8
  %7 = alloca [16 x i8], align 16
  %8 = alloca i32, align 4
  %9 = alloca i32, align 4
  store ptr %0, ptr %4, align 8
  store i32 %1, ptr %5, align 4
  call void @llvm.memcpy.p0.p0.i64(ptr align 16 %7, ptr align 16 @__const.cli_str2hex.HEX, i64 16, i1 false)
  %10 = load i32, ptr %5, align 4
  %11 = mul i32 2, %10
  %12 = add i32 %11, 1
  %13 = zext i32 %12 to i64
  %14 = call ptr @cli_max_calloc(i64 noundef %13, i64 noundef 1)
  store ptr %14, ptr %6, align 8
  %15 = icmp eq ptr %14, null
  br i1 %15, label %16, label %17

16:                                               ; preds = %2
  store ptr null, ptr %3, align 8
  br label %60

17:                                               ; preds = %2
  store i32 0, ptr %8, align 4
  store i32 0, ptr %9, align 4
  br label %18

18:                                               ; preds = %53, %17
  %19 = load i32, ptr %8, align 4
  %20 = load i32, ptr %5, align 4
  %21 = icmp ult i32 %19, %20
  br i1 %21, label %22, label %58

22:                                               ; preds = %18
  %23 = load ptr, ptr %4, align 8
  %24 = load i32, ptr %8, align 4
  %25 = zext i32 %24 to i64
  %26 = getelementptr inbounds i8, ptr %23, i64 %25
  %27 = load i8, ptr %26, align 1
  %28 = sext i8 %27 to i32
  %29 = ashr i32 %28, 4
  %30 = and i32 %29, 15
  %31 = sext i32 %30 to i64
  %32 = getelementptr inbounds [16 x i8], ptr %7, i64 0, i64 %31
  %33 = load i8, ptr %32, align 1
  %34 = load ptr, ptr %6, align 8
  %35 = load i32, ptr %9, align 4
  %36 = zext i32 %35 to i64
  %37 = getelementptr inbounds i8, ptr %34, i64 %36
  store i8 %33, ptr %37, align 1
  %38 = load ptr, ptr %4, align 8
  %39 = load i32, ptr %8, align 4
  %40 = zext i32 %39 to i64
  %41 = getelementptr inbounds i8, ptr %38, i64 %40
  %42 = load i8, ptr %41, align 1
  %43 = sext i8 %42 to i32
  %44 = and i32 %43, 15
  %45 = sext i32 %44 to i64
  %46 = getelementptr inbounds [16 x i8], ptr %7, i64 0, i64 %45
  %47 = load i8, ptr %46, align 1
  %48 = load ptr, ptr %6, align 8
  %49 = load i32, ptr %9, align 4
  %50 = add i32 %49, 1
  %51 = zext i32 %50 to i64
  %52 = getelementptr inbounds i8, ptr %48, i64 %51
  store i8 %47, ptr %52, align 1
  br label %53

53:                                               ; preds = %22
  %54 = load i32, ptr %8, align 4
  %55 = add i32 %54, 1
  store i32 %55, ptr %8, align 4
  %56 = load i32, ptr %9, align 4
  %57 = add i32 %56, 2
  store i32 %57, ptr %9, align 4
  br label %18

58:                                               ; preds = %18
  %59 = load ptr, ptr %6, align 8
  store ptr %59, ptr %3, align 8
  br label %60

60:                                               ; preds = %58, %16
  %61 = load ptr, ptr %3, align 8
  ret ptr %61
}