; Function Attrs: nounwind uwtable
define ptr @cli_str2hex(ptr nocapture noundef readonly %0, i32 noundef %1) local_unnamed_addr #1 {
  %3 = shl i32 %1, 1
  %4 = or disjoint i32 %3, 1
  %5 = zext i32 %4 to i64
  %6 = tail call ptr @cli_max_calloc(i64 noundef %5, i64 noundef 1) #27
  %7 = icmp ne ptr %6, null
  %8 = icmp ne i32 %1, 0
  %or.cond = and i1 %7, %8
  br i1 %or.cond, label %.lr.ph.preheader, label %.loopexit

.lr.ph.preheader:                                 ; preds = %2
  %wide.trip.count = zext i32 %1 to i64
  br label %.lr.ph

.lr.ph:                                           ; preds = %.lr.ph.preheader, %.lr.ph
  %indvars.iv = phi i64 [ 0, %.lr.ph.preheader ], [ %indvars.iv.next, %.lr.ph ]
  %.018 = phi i32 [ 0, %.lr.ph.preheader ], [ %25, %.lr.ph ]
  %9 = getelementptr inbounds i8, ptr %0, i64 %indvars.iv
  %10 = load i8, ptr %9, align 1
  %11 = lshr i8 %10, 4
  %12 = zext nneg i8 %11 to i64
  %13 = getelementptr inbounds [16 x i8], ptr @__const.cli_str2hex.HEX, i64 0, i64 %12
  %14 = load i8, ptr %13, align 1
  %15 = zext i32 %.018 to i64
  %16 = getelementptr inbounds i8, ptr %6, i64 %15
  store i8 %14, ptr %16, align 1
  %17 = load i8, ptr %9, align 1
  %18 = and i8 %17, 15
  %19 = zext nneg i8 %18 to i64
  %20 = getelementptr inbounds [16 x i8], ptr @__const.cli_str2hex.HEX, i64 0, i64 %19
  %21 = load i8, ptr %20, align 1
  %22 = or disjoint i32 %.018, 1
  %23 = zext i32 %22 to i64
  %24 = getelementptr inbounds i8, ptr %6, i64 %23
  store i8 %21, ptr %24, align 1
  %indvars.iv.next = add nuw nsw i64 %indvars.iv, 1
  %25 = add i32 %.018, 2
  %exitcond.not = icmp eq i64 %indvars.iv.next, %wide.trip.count
  br i1 %exitcond.not, label %.loopexit, label %.lr.ph

.loopexit:                                        ; preds = %.lr.ph, %2
  ret ptr %6
}